target datalayout = "e-m:e-p270:32:32-p271:32:32-p272:64:64-i64:64-i128:128-f80:128-n8:16:32:64-S128"
target triple = "x86_64-pc-linux-gnu"

%struct.ainfo = type { double, double, i64 }

; Function Attrs: nounwind uwtable
define internal i32 @ucmpf(ptr noundef %0, ptr noundef %1, ptr noundef %2) #0 {
  %4 = alloca i32, align 4
  %5 = alloca ptr, align 8
  %6 = alloca ptr, align 8
  %7 = alloca ptr, align 8
  %8 = alloca ptr, align 8
  %9 = alloca ptr, align 8
  %10 = alloca ptr, align 8
  %11 = alloca i32, align 4
  %12 = alloca i32, align 4
  %13 = alloca i32, align 4
  store ptr %0, ptr %5, align 8, !tbaa !12
  store ptr %1, ptr %6, align 8, !tbaa !12
  store ptr %2, ptr %7, align 8, !tbaa !12
  call void @llvm.lifetime.start.p0(i64 8, ptr %8) #12
  %14 = load ptr, ptr %5, align 8, !tbaa !12
  %15 = load ptr, ptr %14, align 8, !tbaa !12
  store ptr %15, ptr %8, align 8, !tbaa !12
  call void @llvm.lifetime.start.p0(i64 8, ptr %9) #12
  %16 = load ptr, ptr %6, align 8, !tbaa !12
  %17 = load ptr, ptr %16, align 8, !tbaa !12
  store ptr %17, ptr %9, align 8, !tbaa !12
  call void @llvm.lifetime.start.p0(i64 8, ptr %10) #12
  %18 = load ptr, ptr %7, align 8, !tbaa !12
  store ptr %18, ptr %10, align 8, !tbaa !203
  call void @llvm.lifetime.start.p0(i64 4, ptr %11) #12
  %19 = load ptr, ptr %10, align 8, !tbaa !203
  %20 = load ptr, ptr %8, align 8, !tbaa !12
  %21 = getelementptr inbounds nuw %struct.ainfo, ptr %20, i32 0, i32 2
  %22 = load i64, ptr %21, align 8, !tbaa !90
  %23 = getelementptr inbounds nuw i32, ptr %19, i64 %22
  %24 = load i32, ptr %23, align 4, !tbaa !35
  store i32 %24, ptr %11, align 4, !tbaa !35
  call void @llvm.lifetime.start.p0(i64 4, ptr %12) #12
  %25 = load ptr, ptr %10, align 8, !tbaa !203
  %26 = load ptr, ptr %9, align 8, !tbaa !12
  %27 = getelementptr inbounds nuw %struct.ainfo, ptr %26, i32 0, i32 2
  %28 = load i64, ptr %27, align 8, !tbaa !90
  %29 = getelementptr inbounds nuw i32, ptr %25, i64 %28
  %30 = load i32, ptr %29, align 4, !tbaa !35
  store i32 %30, ptr %12, align 4, !tbaa !35
  %31 = load i32, ptr %11, align 4, !tbaa !35
  %32 = load i32, ptr %12, align 4, !tbaa !35
  %33 = icmp ugt i32 %31, %32
  br i1 %33, label %34, label %35

34:                                               ; preds = %3
  store i32 1, ptr %4, align 4
  store i32 1, ptr %13, align 4
  br label %41

35:                                               ; preds = %3
  %36 = load i32, ptr %11, align 4, !tbaa !35
  %37 = load i32, ptr %12, align 4, !tbaa !35
  %38 = icmp ult i32 %36, %37
  br i1 %38, label %39, label %40

39:                                               ; preds = %35
  store i32 -1, ptr %4, align 4
  store i32 1, ptr %13, align 4
  br label %41

40:                                               ; preds = %35
  store i32 0, ptr %4, align 4
  store i32 1, ptr %13, align 4
  br label %41

41:                                               ; preds = %40, %39, %34
  call void @llvm.lifetime.end.p0(i64 4, ptr %12) #12
  call void @llvm.lifetime.end.p0(i64 4, ptr %11) #12
  call void @llvm.lifetime.end.p0(i64 8, ptr %10) #12
  call void @llvm.lifetime.end.p0(i64 8, ptr %9) #12
  call void @llvm.lifetime.end.p0(i64 8, ptr %8) #12
  %42 = load i32, ptr %4, align 4
  ret i32 %42
}