; Function Attrs: mustprogress nofree norecurse nosync nounwind willreturn memory(read, inaccessiblemem: none) uwtable
define internal range(i32 -1, 2) i32 @ucmpf(ptr noundef readonly captures(none) %0, ptr noundef readonly captures(none) %1, ptr noundef readonly captures(none) %2) #10 {
  %4 = load ptr, ptr %0, align 8, !tbaa !66
  %5 = load ptr, ptr %1, align 8, !tbaa !66
  %6 = getelementptr inbounds nuw i8, ptr %4, i64 16
  %7 = load i64, ptr %6, align 8, !tbaa !114
  %8 = getelementptr inbounds nuw i32, ptr %2, i64 %7
  %9 = load i32, ptr %8, align 4, !tbaa !108
  %10 = getelementptr inbounds nuw i8, ptr %5, i64 16
  %11 = load i64, ptr %10, align 8, !tbaa !114
  %12 = getelementptr inbounds nuw i32, ptr %2, i64 %11
  %13 = load i32, ptr %12, align 4, !tbaa !108
  %.0 = tail call i32 @llvm.ucmp.i32.i32(i32 %9, i32 %13)
  ret i32 %.0
}